; Function Attrs: mustprogress uwtable
define hidden noundef nonnull align 8 dereferenceable(48) ptr @_ZN7datalog17lazy_table_plugin3getERNS_10table_baseE(ptr noundef nonnull readonly align 8 dereferenceable(36) %0) local_unnamed_addr #3 align 2 {
  %2 = tail call ptr @__dynamic_cast(ptr nonnull %0, ptr nonnull @_ZTIN7datalog10table_baseE, ptr nonnull @_ZTIN7datalog10lazy_tableE, i64 0) #22
  %3 = icmp eq ptr %2, null
  br i1 %3, label %4, label %5

4:                                                ; preds = %1
  tail call void @__cxa_bad_cast() #24
  unreachable

5:                                                ; preds = %1
  ret ptr %2
}